; ModuleID = '2/392.c'
source_filename = "2/392.c"
target datalayout = "e-m:e-p270:32:32-p271:32:32-p272:64:64-i64:64-f80:128-n8:16:32:64-S128"
target triple = "x86_64-pc-linux-gnu"

%struct.jisuan = type { i32, [26 x i8] }

@.str = private unnamed_addr constant [3 x i8] c"%d\00", align 1
@book = common dso_local global [1000 x %struct.jisuan] zeroinitializer, align 16
@.str.1 = private unnamed_addr constant [7 x i8] c"%c\0A%d\0A\00", align 1
@.str.2 = private unnamed_addr constant [4 x i8] c"%d\0A\00", align 1

; Function Attrs: noinline nounwind uwtable
define dso_local i32 @main() #0 {
  %1 = alloca i32, align 4
  %2 = alloca i32, align 4
  %3 = alloca i32, align 4
  %4 = alloca i32, align 4
  %5 = alloca i32, align 4
  %6 = alloca i32, align 4
  %7 = alloca i32, align 4
  %8 = alloca [26 x i32], align 16
  %9 = alloca [26 x i32], align 16
  store i32 0, i32* %1, align 4
  %10 = bitcast [26 x i32]* %8 to i8*
  call void @llvm.memset.p0i8.i64(i8* align 16 %10, i8 0, i64 104, i1 false)
  %11 = call i32 (i8*, ...) @__isoc99_scanf(i8* getelementptr inbounds ([3 x i8], [3 x i8]* @.str, i64 0, i64 0), i32* %4)
  store i32 0, i32* %2, align 4
  br label %12

12:                                               ; preds = %21, %0
  %13 = load i32, i32* %2, align 4
  %14 = icmp slt i32 %13, 26
  br i1 %14, label %15, label %24

15:                                               ; preds = %12
  %16 = load i32, i32* %2, align 4
  %17 = add nsw i32 65, %16
  %18 = load i32, i32* %2, align 4
  %19 = sext i32 %18 to i64
  %20 = getelementptr inbounds [26 x i32], [26 x i32]* %9, i64 0, i64 %19
  store i32 %17, i32* %20, align 4
  br label %21

21:                                               ; preds = %15
  %22 = load i32, i32* %2, align 4
  %23 = add nsw i32 %22, 1
  store i32 %23, i32* %2, align 4
  br label %12

24:                                               ; preds = %12
  store i32 0, i32* %2, align 4
  br label %25

25:                                               ; preds = %41, %24
  %26 = load i32, i32* %2, align 4
  %27 = load i32, i32* %4, align 4
  %28 = icmp slt i32 %26, %27
  br i1 %28, label %29, label %44

29:                                               ; preds = %25
  %30 = load i32, i32* %2, align 4
  %31 = sext i32 %30 to i64
  %32 = getelementptr inbounds [1000 x %struct.jisuan], [1000 x %struct.jisuan]* @book, i64 0, i64 %31
  %33 = getelementptr inbounds %struct.jisuan, %struct.jisuan* %32, i32 0, i32 0
  %34 = call i32 (i8*, ...) @__isoc99_scanf(i8* getelementptr inbounds ([3 x i8], [3 x i8]* @.str, i64 0, i64 0), i32* %33)
  %35 = load i32, i32* %2, align 4
  %36 = sext i32 %35 to i64
  %37 = getelementptr inbounds [1000 x %struct.jisuan], [1000 x %struct.jisuan]* @book, i64 0, i64 %36
  %38 = getelementptr inbounds %struct.jisuan, %struct.jisuan* %37, i32 0, i32 1
  %39 = getelementptr inbounds [26 x i8], [26 x i8]* %38, i64 0, i64 0
  %40 = call i32 (i8*, ...) bitcast (i32 (...)* @gets to i32 (i8*, ...)*)(i8* %39)
  br label %41

41:                                               ; preds = %29
  %42 = load i32, i32* %2, align 4
  %43 = add nsw i32 %42, 1
  store i32 %43, i32* %2, align 4
  br label %25

44:                                               ; preds = %25
  store i32 65, i32* %2, align 4
  br label %45

45:                                               ; preds = %93, %44
  %46 = load i32, i32* %2, align 4
  %47 = icmp sle i32 %46, 90
  br i1 %47, label %48, label %96

48:                                               ; preds = %45
  store i32 0, i32* %3, align 4
  br label %49

49:                                               ; preds = %89, %48
  %50 = load i32, i32* %3, align 4
  %51 = load i32, i32* %4, align 4
  %52 = icmp slt i32 %50, %51
  br i1 %52, label %53, label %92

53:                                               ; preds = %49
  %54 = load i32, i32* %3, align 4
  %55 = sext i32 %54 to i64
  %56 = getelementptr inbounds [1000 x %struct.jisuan], [1000 x %struct.jisuan]* @book, i64 0, i64 %55
  %57 = getelementptr inbounds %struct.jisuan, %struct.jisuan* %56, i32 0, i32 1
  %58 = getelementptr inbounds [26 x i8], [26 x i8]* %57, i64 0, i64 0
  %59 = call i64 @strlen(i8* %58) #4
  %60 = trunc i64 %59 to i32
  store i32 %60, i32* %5, align 4
  store i32 0, i32* %6, align 4
  br label %61

61:                                               ; preds = %85, %53
  %62 = load i32, i32* %6, align 4
  %63 = load i32, i32* %5, align 4
  %64 = icmp slt i32 %62, %63
  br i1 %64, label %65, label %88

65:                                               ; preds = %61
  %66 = load i32, i32* %2, align 4
  %67 = load i32, i32* %3, align 4
  %68 = sext i32 %67 to i64
  %69 = getelementptr inbounds [1000 x %struct.jisuan], [1000 x %struct.jisuan]* @book, i64 0, i64 %68
  %70 = getelementptr inbounds %struct.jisuan, %struct.jisuan* %69, i32 0, i32 1
  %71 = load i32, i32* %6, align 4
  %72 = sext i32 %71 to i64
  %73 = getelementptr inbounds [26 x i8], [26 x i8]* %70, i64 0, i64 %72
  %74 = load i8, i8* %73, align 1
  %75 = sext i8 %74 to i32
  %76 = icmp eq i32 %66, %75
  br i1 %76, label %77, label %84

77:                                               ; preds = %65
  %78 = load i32, i32* %2, align 4
  %79 = sub nsw i32 %78, 65
  %80 = sext i32 %79 to i64
  %81 = getelementptr inbounds [26 x i32], [26 x i32]* %8, i64 0, i64 %80
  %82 = load i32, i32* %81, align 4
  %83 = add nsw i32 %82, 1
  store i32 %83, i32* %81, align 4
  br label %84

84:                                               ; preds = %77, %65
  br label %85

85:                                               ; preds = %84
  %86 = load i32, i32* %6, align 4
  %87 = add nsw i32 %86, 1
  store i32 %87, i32* %6, align 4
  br label %61

88:                                               ; preds = %61
  br label %89

89:                                               ; preds = %88
  %90 = load i32, i32* %3, align 4
  %91 = add nsw i32 %90, 1
  store i32 %91, i32* %3, align 4
  br label %49

92:                                               ; preds = %49
  br label %93

93:                                               ; preds = %92
  %94 = load i32, i32* %2, align 4
  %95 = add nsw i32 %94, 1
  store i32 %95, i32* %2, align 4
  br label %45

96:                                               ; preds = %45
  store i32 0, i32* %2, align 4
  br label %97

97:                                               ; preds = %147, %96
  %98 = load i32, i32* %2, align 4
  %99 = icmp slt i32 %98, 25
  br i1 %99, label %100, label %150

100:                                              ; preds = %97
  %101 = load i32, i32* %2, align 4
  %102 = sext i32 %101 to i64
  %103 = getelementptr inbounds [26 x i32], [26 x i32]* %8, i64 0, i64 %102
  %104 = load i32, i32* %103, align 4
  %105 = load i32, i32* %2, align 4
  %106 = add nsw i32 %105, 1
  %107 = sext i32 %106 to i64
  %108 = getelementptr inbounds [26 x i32], [26 x i32]* %8, i64 0, i64 %107
  %109 = load i32, i32* %108, align 4
  %110 = icmp sgt i32 %104, %109
  br i1 %110, label %111, label %146

111:                                              ; preds = %100
  %112 = load i32, i32* %2, align 4
  %113 = sext i32 %112 to i64
  %114 = getelementptr inbounds [26 x i32], [26 x i32]* %8, i64 0, i64 %113
  %115 = load i32, i32* %114, align 4
  store i32 %115, i32* %7, align 4
  %116 = load i32, i32* %2, align 4
  %117 = add nsw i32 %116, 1
  %118 = sext i32 %117 to i64
  %119 = getelementptr inbounds [26 x i32], [26 x i32]* %8, i64 0, i64 %118
  %120 = load i32, i32* %119, align 4
  %121 = load i32, i32* %2, align 4
  %122 = sext i32 %121 to i64
  %123 = getelementptr inbounds [26 x i32], [26 x i32]* %8, i64 0, i64 %122
  store i32 %120, i32* %123, align 4
  %124 = load i32, i32* %7, align 4
  %125 = load i32, i32* %2, align 4
  %126 = add nsw i32 %125, 1
  %127 = sext i32 %126 to i64
  %128 = getelementptr inbounds [26 x i32], [26 x i32]* %8, i64 0, i64 %127
  store i32 %124, i32* %128, align 4
  %129 = load i32, i32* %2, align 4
  %130 = sext i32 %129 to i64
  %131 = getelementptr inbounds [26 x i32], [26 x i32]* %9, i64 0, i64 %130
  %132 = load i32, i32* %131, align 4
  store i32 %132, i32* %7, align 4
  %133 = load i32, i32* %2, align 4
  %134 = add nsw i32 %133, 1
  %135 = sext i32 %134 to i64
  %136 = getelementptr inbounds [26 x i32], [26 x i32]* %9, i64 0, i64 %135
  %137 = load i32, i32* %136, align 4
  %138 = load i32, i32* %2, align 4
  %139 = sext i32 %138 to i64
  %140 = getelementptr inbounds [26 x i32], [26 x i32]* %9, i64 0, i64 %139
  store i32 %137, i32* %140, align 4
  %141 = load i32, i32* %7, align 4
  %142 = load i32, i32* %2, align 4
  %143 = add nsw i32 %142, 1
  %144 = sext i32 %143 to i64
  %145 = getelementptr inbounds [26 x i32], [26 x i32]* %9, i64 0, i64 %144
  store i32 %141, i32* %145, align 4
  br label %146

146:                                              ; preds = %111, %100
  br label %147

147:                                              ; preds = %146
  %148 = load i32, i32* %2, align 4
  %149 = add nsw i32 %148, 1
  store i32 %149, i32* %2, align 4
  br label %97

150:                                              ; preds = %97
  %151 = getelementptr inbounds [26 x i32], [26 x i32]* %9, i64 0, i64 25
  %152 = load i32, i32* %151, align 4
  %153 = getelementptr inbounds [26 x i32], [26 x i32]* %8, i64 0, i64 25
  %154 = load i32, i32* %153, align 4
  %155 = call i32 (i8*, ...) @printf(i8* getelementptr inbounds ([7 x i8], [7 x i8]* @.str.1, i64 0, i64 0), i32 %152, i32 %154)
  store i32 0, i32* %2, align 4
  br label %156

156:                                              ; preds = %197, %150
  %157 = load i32, i32* %2, align 4
  %158 = load i32, i32* %4, align 4
  %159 = icmp slt i32 %157, %158
  br i1 %159, label %160, label %200

160:                                              ; preds = %156
  %161 = load i32, i32* %2, align 4
  %162 = sext i32 %161 to i64
  %163 = getelementptr inbounds [1000 x %struct.jisuan], [1000 x %struct.jisuan]* @book, i64 0, i64 %162
  %164 = getelementptr inbounds %struct.jisuan, %struct.jisuan* %163, i32 0, i32 1
  %165 = getelementptr inbounds [26 x i8], [26 x i8]* %164, i64 0, i64 0
  %166 = call i64 @strlen(i8* %165) #4
  %167 = trunc i64 %166 to i32
  store i32 %167, i32* %5, align 4
  store i32 0, i32* %6, align 4
  br label %168

168:                                              ; preds = %193, %160
  %169 = load i32, i32* %6, align 4
  %170 = load i32, i32* %5, align 4
  %171 = icmp slt i32 %169, %170
  br i1 %171, label %172, label %196

172:                                              ; preds = %168
  %173 = load i32, i32* %2, align 4
  %174 = sext i32 %173 to i64
  %175 = getelementptr inbounds [1000 x %struct.jisuan], [1000 x %struct.jisuan]* @book, i64 0, i64 %174
  %176 = getelementptr inbounds %struct.jisuan, %struct.jisuan* %175, i32 0, i32 1
  %177 = load i32, i32* %6, align 4
  %178 = sext i32 %177 to i64
  %179 = getelementptr inbounds [26 x i8], [26 x i8]* %176, i64 0, i64 %178
  %180 = load i8, i8* %179, align 1
  %181 = sext i8 %180 to i32
  %182 = getelementptr inbounds [26 x i32], [26 x i32]* %9, i64 0, i64 25
  %183 = load i32, i32* %182, align 4
  %184 = icmp eq i32 %181, %183
  br i1 %184, label %185, label %192

185:                                              ; preds = %172
  %186 = load i32, i32* %2, align 4
  %187 = sext i32 %186 to i64
  %188 = getelementptr inbounds [1000 x %struct.jisuan], [1000 x %struct.jisuan]* @book, i64 0, i64 %187
  %189 = getelementptr inbounds %struct.jisuan, %struct.jisuan* %188, i32 0, i32 0
  %190 = load i32, i32* %189, align 16
  %191 = call i32 (i8*, ...) @printf(i8* getelementptr inbounds ([4 x i8], [4 x i8]* @.str.2, i64 0, i64 0), i32 %190)
  br label %192

192:                                              ; preds = %185, %172
  br label %193

193:                                              ; preds = %192
  %194 = load i32, i32* %6, align 4
  %195 = add nsw i32 %194, 1
  store i32 %195, i32* %6, align 4
  br label %168

196:                                              ; preds = %168
  br label %197

197:                                              ; preds = %196
  %198 = load i32, i32* %2, align 4
  %199 = add nsw i32 %198, 1
  store i32 %199, i32* %2, align 4
  br label %156

200:                                              ; preds = %156
  ret i32 0
}

; Function Attrs: argmemonly nounwind willreturn
declare void @llvm.memset.p0i8.i64(i8* nocapture writeonly, i8, i64, i1 immarg) #1

declare dso_local i32 @__isoc99_scanf(i8*, ...) #2

declare dso_local i32 @gets(...) #2

; Function Attrs: nounwind readonly
declare dso_local i64 @strlen(i8*) #3

declare dso_local i32 @printf(i8*, ...) #2


!llvm.module.flags = !{!0}
!llvm.ident = !{!1}

!0 = !{i32 1, !"wchar_size", i32 4}
!1 = !{!"clang version 10.0.0-4ubuntu1 "}
